target datalayout = "e-m:e-p270:32:32-p271:32:32-p272:64:64-i64:64-i128:128-f80:128-n8:16:32:64-S128"
target triple = "x86_64-pc-linux-gnu"

%struct.dirent = type { i64, i64, i16, i8, [256 x i8] }

@cleanBackupHistory = internal global i8 0, align 1
@dryrun = internal global i8 0, align 1
@additional_ext = internal global ptr null, align 8
@archiveLocation = internal global ptr null, align 8
@__pg_log_level = external global i32, align 4
@exclusiveCleanupFileName = internal global [64 x i8] zeroinitializer, align 16
@.str.37 = private unnamed_addr constant [17 x i8] c"0123456789ABCDEF\00", align 1
@.str.38 = private unnamed_addr constant [9 x i8] c".partial\00", align 1
@.str.40 = private unnamed_addr constant [8 x i8] c".backup\00", align 1
@.str.41 = private unnamed_addr constant [41 x i8] c"could not open archive location \22%s\22: %m\00", align 1
@.str.42 = private unnamed_addr constant [6 x i8] c"%s/%s\00", align 1
@.str.43 = private unnamed_addr constant [4 x i8] c"%s\0A\00", align 1
@.str.44 = private unnamed_addr constant [27 x i8] c"file \22%s\22 would be removed\00", align 1
@.str.45 = private unnamed_addr constant [19 x i8] c"removing file \22%s\22\00", align 1
@.str.46 = private unnamed_addr constant [31 x i8] c"could not remove file \22%s\22: %m\00", align 1
@.str.47 = private unnamed_addr constant [41 x i8] c"could not read archive location \22%s\22: %m\00", align 1
@.str.48 = private unnamed_addr constant [42 x i8] c"could not close archive location \22%s\22: %m\00", align 1

; Function Attrs: inlinehint nounwind uwtable
define internal zeroext i1 @IsBackupHistoryFileName(ptr noundef %0) #7 {
  %2 = alloca ptr, align 8
  store ptr %0, ptr %2, align 8
  %3 = load ptr, ptr %2, align 8
  %4 = call i64 @strlen(ptr noundef %3) #10
  %5 = icmp ugt i64 %4, 24
  br i1 %5, label %6, label %18

6:                                                ; preds = %1
  %7 = load ptr, ptr %2, align 8
  %8 = call i64 @strspn(ptr noundef %7, ptr noundef @.str.37) #10
  %9 = icmp eq i64 %8, 24
  br i1 %9, label %10, label %18

10:                                               ; preds = %6
  %11 = load ptr, ptr %2, align 8
  %12 = load ptr, ptr %2, align 8
  %13 = call i64 @strlen(ptr noundef %12) #10
  %14 = getelementptr inbounds nuw i8, ptr %11, i64 %13
  %15 = getelementptr inbounds i8, ptr %14, i64 -7
  %16 = call i32 @strcmp(ptr noundef %15, ptr noundef @.str.40) #10
  %17 = icmp eq i32 %16, 0
  br label %18

18:                                               ; preds = %10, %6, %1
  %19 = phi i1 [ false, %6 ], [ false, %1 ], [ %17, %10 ]
  ret i1 %19
}

; Function Attrs: inlinehint nounwind uwtable
define internal zeroext i1 @IsPartialXLogFileName(ptr noundef %0) #7 {
  %2 = alloca ptr, align 8
  store ptr %0, ptr %2, align 8
  %3 = load ptr, ptr %2, align 8
  %4 = call i64 @strlen(ptr noundef %3) #10
  %5 = icmp eq i64 %4, 32
  br i1 %5, label %6, label %15

6:                                                ; preds = %1
  %7 = load ptr, ptr %2, align 8
  %8 = call i64 @strspn(ptr noundef %7, ptr noundef @.str.37) #10
  %9 = icmp eq i64 %8, 24
  br i1 %9, label %10, label %15

10:                                               ; preds = %6
  %11 = load ptr, ptr %2, align 8
  %12 = getelementptr inbounds i8, ptr %11, i64 24
  %13 = call i32 @strcmp(ptr noundef %12, ptr noundef @.str.38) #10
  %14 = icmp eq i32 %13, 0
  br label %15

15:                                               ; preds = %10, %6, %1
  %16 = phi i1 [ false, %6 ], [ false, %1 ], [ %14, %10 ]
  ret i1 %16
}

; Function Attrs: inlinehint nounwind uwtable
define internal zeroext i1 @IsXLogFileName(ptr noundef %0) #7 {
  %2 = alloca ptr, align 8
  store ptr %0, ptr %2, align 8
  %3 = load ptr, ptr %2, align 8
  %4 = call i64 @strlen(ptr noundef %3) #10
  %5 = icmp eq i64 %4, 24
  br i1 %5, label %6, label %10

6:                                                ; preds = %1
  %7 = load ptr, ptr %2, align 8
  %8 = call i64 @strspn(ptr noundef %7, ptr noundef @.str.37) #10
  %9 = icmp eq i64 %8, 24
  br label %10

10:                                               ; preds = %6, %1
  %11 = phi i1 [ false, %1 ], [ %9, %6 ]
  ret i1 %11
}

; Function Attrs: nounwind uwtable
define internal void @TrimExtension(ptr noundef %0, ptr noundef %1) #0 {
  %3 = alloca ptr, align 8
  %4 = alloca ptr, align 8
  %5 = alloca i32, align 4
  %6 = alloca i32, align 4
  %7 = alloca i32, align 4
  store ptr %0, ptr %3, align 8
  store ptr %1, ptr %4, align 8
  call void @llvm.lifetime.start.p0(i64 4, ptr %5) #9
  call void @llvm.lifetime.start.p0(i64 4, ptr %6) #9
  %8 = load ptr, ptr %4, align 8
  %9 = icmp eq ptr %8, null
  br i1 %9, label %10, label %11

10:                                               ; preds = %2
  store i32 1, ptr %7, align 4
  br label %41

11:                                               ; preds = %2
  %12 = load ptr, ptr %4, align 8
  %13 = call i64 @strlen(ptr noundef %12) #10
  %14 = trunc i64 %13 to i32
  store i32 %14, ptr %6, align 4
  %15 = load ptr, ptr %3, align 8
  %16 = call i64 @strlen(ptr noundef %15) #10
  %17 = trunc i64 %16 to i32
  store i32 %17, ptr %5, align 4
  %18 = load i32, ptr %5, align 4
  %19 = load i32, ptr %6, align 4
  %20 = icmp sgt i32 %18, %19
  br i1 %20, label %21, label %40

21:                                               ; preds = %11
  %22 = load ptr, ptr %3, align 8
  %23 = load i32, ptr %5, align 4
  %24 = sext i32 %23 to i64
  %25 = getelementptr inbounds i8, ptr %22, i64 %24
  %26 = load i32, ptr %6, align 4
  %27 = sext i32 %26 to i64
  %28 = sub i64 0, %27
  %29 = getelementptr inbounds i8, ptr %25, i64 %28
  %30 = load ptr, ptr %4, align 8
  %31 = call i32 @strcmp(ptr noundef %29, ptr noundef %30) #10
  %32 = icmp eq i32 %31, 0
  br i1 %32, label %33, label %40

33:                                               ; preds = %21
  %34 = load ptr, ptr %3, align 8
  %35 = load i32, ptr %5, align 4
  %36 = load i32, ptr %6, align 4
  %37 = sub i32 %35, %36
  %38 = sext i32 %37 to i64
  %39 = getelementptr inbounds i8, ptr %34, i64 %38
  store i8 0, ptr %39, align 1
  br label %40

40:                                               ; preds = %33, %21, %11
  store i32 0, ptr %7, align 4
  br label %41

41:                                               ; preds = %40, %10
  call void @llvm.lifetime.end.p0(i64 4, ptr %6) #9
  call void @llvm.lifetime.end.p0(i64 4, ptr %5) #9
  %42 = load i32, ptr %7, align 4
  switch i32 %42, label %44 [
    i32 0, label %43
    i32 1, label %43
  ]

43:                                               ; preds = %41, %41
  ret void

44:                                               ; preds = %41
  unreachable
}

; Function Attrs: nounwind uwtable
define internal void @CleanupPriorWALFiles() #0 {
  %1 = alloca i32, align 4
  %2 = alloca ptr, align 8
  %3 = alloca ptr, align 8
  %4 = alloca [1024 x i8], align 16
  %5 = alloca [2048 x i8], align 16
  %6 = alloca i32, align 4
  call void @llvm.lifetime.start.p0(i64 4, ptr %1) #9
  call void @llvm.lifetime.start.p0(i64 8, ptr %2) #9
  call void @llvm.lifetime.start.p0(i64 8, ptr %3) #9
  call void @llvm.lifetime.start.p0(i64 1024, ptr %4) #9
  %7 = load ptr, ptr @archiveLocation, align 8
  %8 = call ptr @opendir(ptr noundef %7)
  store ptr %8, ptr %2, align 8
  %9 = load ptr, ptr %2, align 8
  %10 = icmp eq ptr %9, null
  br i1 %10, label %11, label %16

11:                                               ; preds = %0
  br label %12

12:                                               ; preds = %11
  %13 = load ptr, ptr @archiveLocation, align 8
  call void (i32, i32, ptr, ...) @pg_log_generic(i32 noundef 4, i32 noundef 0, ptr noundef @.str.41, ptr noundef %13)
  call void @exit(i32 noundef 1) #11
  unreachable

14:                                               ; No predecessors!
  br label %15

15:                                               ; preds = %14
  br label %16

16:                                               ; preds = %15, %0
  br label %17

17:                                               ; preds = %101, %99, %16
  %18 = call ptr @__errno_location() #12
  store i32 0, ptr %18, align 4
  %19 = load ptr, ptr %2, align 8
  %20 = call ptr @readdir(ptr noundef %19)
  store ptr %20, ptr %3, align 8
  %21 = icmp ne ptr %20, null
  br i1 %21, label %22, label %102

22:                                               ; preds = %17
  call void @llvm.lifetime.start.p0(i64 2048, ptr %5) #9
  %23 = getelementptr inbounds [1024 x i8], ptr %4, i64 0, i64 0
  %24 = load ptr, ptr %3, align 8
  %25 = getelementptr inbounds nuw %struct.dirent, ptr %24, i32 0, i32 4
  %26 = getelementptr inbounds [256 x i8], ptr %25, i64 0, i64 0
  %27 = call i64 @strlcpy(ptr noundef %23, ptr noundef %26, i64 noundef 1024)
  %28 = getelementptr inbounds [1024 x i8], ptr %4, i64 0, i64 0
  %29 = load ptr, ptr @additional_ext, align 8
  call void @TrimExtension(ptr noundef %28, ptr noundef %29)
  %30 = getelementptr inbounds [1024 x i8], ptr %4, i64 0, i64 0
  %31 = call zeroext i1 @IsXLogFileName(ptr noundef %30)
  br i1 %31, label %42, label %32

32:                                               ; preds = %22
  %33 = getelementptr inbounds [1024 x i8], ptr %4, i64 0, i64 0
  %34 = call zeroext i1 @IsPartialXLogFileName(ptr noundef %33)
  br i1 %34, label %42, label %35

35:                                               ; preds = %32
  %36 = load i8, ptr @cleanBackupHistory, align 1, !range !6, !noundef !7
  %37 = trunc i8 %36 to i1
  br i1 %37, label %38, label %41

38:                                               ; preds = %35
  %39 = getelementptr inbounds [1024 x i8], ptr %4, i64 0, i64 0
  %40 = call zeroext i1 @IsBackupHistoryFileName(ptr noundef %39)
  br i1 %40, label %42, label %41

41:                                               ; preds = %38, %35
  store i32 4, ptr %6, align 4
  br label %99, !llvm.loop !8

42:                                               ; preds = %38, %32, %22
  %43 = getelementptr inbounds [1024 x i8], ptr %4, i64 0, i64 0
  %44 = getelementptr inbounds i8, ptr %43, i64 8
  %45 = call i32 @strcmp(ptr noundef %44, ptr noundef getelementptr inbounds (i8, ptr @exclusiveCleanupFileName, i64 8)) #10
  %46 = icmp sge i32 %45, 0
  br i1 %46, label %47, label %48

47:                                               ; preds = %42
  store i32 4, ptr %6, align 4
  br label %99, !llvm.loop !8

48:                                               ; preds = %42
  %49 = getelementptr inbounds [2048 x i8], ptr %5, i64 0, i64 0
  %50 = load ptr, ptr @archiveLocation, align 8
  %51 = load ptr, ptr %3, align 8
  %52 = getelementptr inbounds nuw %struct.dirent, ptr %51, i32 0, i32 4
  %53 = getelementptr inbounds [256 x i8], ptr %52, i64 0, i64 0
  %54 = call i32 (ptr, i64, ptr, ...) @pg_snprintf(ptr noundef %49, i64 noundef 2048, ptr noundef @.str.42, ptr noundef %50, ptr noundef %53)
  %55 = load i8, ptr @dryrun, align 1, !range !6, !noundef !7
  %56 = trunc i8 %55 to i1
  br i1 %56, label %57, label %74

57:                                               ; preds = %48
  %58 = getelementptr inbounds [2048 x i8], ptr %5, i64 0, i64 0
  %59 = call i32 (ptr, ...) @pg_printf(ptr noundef @.str.43, ptr noundef %58)
  br label %60

60:                                               ; preds = %57
  %61 = load i32, ptr @__pg_log_level, align 4
  %62 = icmp ule i32 %61, 1
  %63 = zext i1 %62 to i32
  %64 = icmp ne i32 %63, 0
  %65 = zext i1 %64 to i32
  %66 = sext i32 %65 to i64
  %67 = call i64 @llvm.expect.i64(i64 %66, i64 0)
  %68 = icmp ne i64 %67, 0
  br i1 %68, label %69, label %71

69:                                               ; preds = %60
  %70 = getelementptr inbounds [2048 x i8], ptr %5, i64 0, i64 0
  call void (i32, i32, ptr, ...) @pg_log_generic(i32 noundef 1, i32 noundef 0, ptr noundef @.str.44, ptr noundef %70)
  br label %71

71:                                               ; preds = %69, %60
  br label %72

72:                                               ; preds = %71
  br label %73

73:                                               ; preds = %72
  store i32 4, ptr %6, align 4
  br label %99, !llvm.loop !8

74:                                               ; preds = %48
  br label %75

75:                                               ; preds = %74
  %76 = load i32, ptr @__pg_log_level, align 4
  %77 = icmp ule i32 %76, 1
  %78 = zext i1 %77 to i32
  %79 = icmp ne i32 %78, 0
  %80 = zext i1 %79 to i32
  %81 = sext i32 %80 to i64
  %82 = call i64 @llvm.expect.i64(i64 %81, i64 0)
  %83 = icmp ne i64 %82, 0
  br i1 %83, label %84, label %86

84:                                               ; preds = %75
  %85 = getelementptr inbounds [2048 x i8], ptr %5, i64 0, i64 0
  call void (i32, i32, ptr, ...) @pg_log_generic(i32 noundef 1, i32 noundef 0, ptr noundef @.str.45, ptr noundef %85)
  br label %86

86:                                               ; preds = %84, %75
  br label %87

87:                                               ; preds = %86
  br label %88

88:                                               ; preds = %87
  %89 = getelementptr inbounds [2048 x i8], ptr %5, i64 0, i64 0
  %90 = call i32 @unlink(ptr noundef %89) #9
  store i32 %90, ptr %1, align 4
  %91 = load i32, ptr %1, align 4
  %92 = icmp ne i32 %91, 0
  br i1 %92, label %93, label %98

93:                                               ; preds = %88
  br label %94

94:                                               ; preds = %93
  %95 = getelementptr inbounds [2048 x i8], ptr %5, i64 0, i64 0
  call void (i32, i32, ptr, ...) @pg_log_generic(i32 noundef 4, i32 noundef 0, ptr noundef @.str.46, ptr noundef %95)
  call void @exit(i32 noundef 1) #11
  unreachable

96:                                               ; No predecessors!
  br label %97

97:                                               ; preds = %96
  br label %98

98:                                               ; preds = %97, %88
  store i32 0, ptr %6, align 4
  br label %99

99:                                               ; preds = %98, %73, %47, %41
  call void @llvm.lifetime.end.p0(i64 2048, ptr %5) #9
  %100 = load i32, ptr %6, align 4
  switch i32 %100, label %121 [
    i32 0, label %101
    i32 4, label %17
  ]

101:                                              ; preds = %99
  br label %17, !llvm.loop !8

102:                                              ; preds = %17
  %103 = call ptr @__errno_location() #12
  %104 = load i32, ptr %103, align 4
  %105 = icmp ne i32 %104, 0
  br i1 %105, label %106, label %111

106:                                              ; preds = %102
  br label %107

107:                                              ; preds = %106
  %108 = load ptr, ptr @archiveLocation, align 8
  call void (i32, i32, ptr, ...) @pg_log_generic(i32 noundef 4, i32 noundef 0, ptr noundef @.str.47, ptr noundef %108)
  call void @exit(i32 noundef 1) #11
  unreachable

109:                                              ; No predecessors!
  br label %110

110:                                              ; preds = %109
  br label %111

111:                                              ; preds = %110, %102
  %112 = load ptr, ptr %2, align 8
  %113 = call i32 @closedir(ptr noundef %112)
  %114 = icmp ne i32 %113, 0
  br i1 %114, label %115, label %120

115:                                              ; preds = %111
  br label %116

116:                                              ; preds = %115
  %117 = load ptr, ptr @archiveLocation, align 8
  call void (i32, i32, ptr, ...) @pg_log_generic(i32 noundef 4, i32 noundef 0, ptr noundef @.str.48, ptr noundef %117)
  call void @exit(i32 noundef 1) #11
  unreachable

118:                                              ; No predecessors!
  br label %119

119:                                              ; preds = %118
  br label %120

120:                                              ; preds = %119, %111
  call void @llvm.lifetime.end.p0(i64 1024, ptr %4) #9
  call void @llvm.lifetime.end.p0(i64 8, ptr %3) #9
  call void @llvm.lifetime.end.p0(i64 8, ptr %2) #9
  call void @llvm.lifetime.end.p0(i64 4, ptr %1) #9
  ret void

121:                                              ; preds = %99
  unreachable
}