; Function Attrs: nounwind uwtable
define internal fastcc void @CleanupPriorWALFiles() unnamed_addr #4 {
  %1 = alloca [1024 x i8], align 16
  %2 = alloca [2048 x i8], align 16
  call void @llvm.lifetime.start.p0(i64 1024, ptr nonnull %1) #12
  %3 = load ptr, ptr @archiveLocation, align 8
  %4 = tail call ptr @opendir(ptr noundef %3)
  %5 = icmp eq ptr %4, null
  br i1 %5, label %10, label %.preheader

.preheader:                                       ; preds = %0
  %6 = tail call ptr @__errno_location() #16
  %invariant.gep = getelementptr i8, ptr %1, i64 -7
  store i32 0, ptr %6, align 4
  %7 = tail call ptr @readdir(ptr noundef nonnull %4) #12
  %.not20 = icmp eq ptr %7, null
  br i1 %.not20, label %._crit_edge, label %.lr.ph

.lr.ph:                                           ; preds = %.preheader
  %8 = getelementptr inbounds nuw i8, ptr %1, i64 24
  %9 = getelementptr inbounds nuw i8, ptr %1, i64 8
  br label %12

10:                                               ; preds = %0
  %11 = load ptr, ptr @archiveLocation, align 8
  tail call void (i32, i32, ptr, ...) @pg_log_generic(i32 noundef 4, i32 noundef 0, ptr noundef nonnull @.str.41, ptr noundef %11) #12
  tail call void @exit(i32 noundef 1) #15
  unreachable

12:                                               ; preds = %.lr.ph, %IsBackupHistoryFileName.exit.thread
  %13 = phi ptr [ %7, %.lr.ph ], [ %66, %IsBackupHistoryFileName.exit.thread ]
  call void @llvm.lifetime.start.p0(i64 2048, ptr nonnull %2) #12
  %14 = getelementptr inbounds nuw i8, ptr %13, i64 19
  %15 = call i64 @strlcpy(ptr noundef nonnull dereferenceable(1) %1, ptr noundef nonnull dereferenceable(1) %14, i64 noundef 1024) #12
  %16 = load ptr, ptr @additional_ext, align 8
  %17 = icmp eq ptr %16, null
  br i1 %17, label %TrimExtension.exit, label %18

18:                                               ; preds = %12
  %19 = call i64 @strlen(ptr noundef nonnull readonly dereferenceable(1) %16) #13
  %20 = trunc i64 %19 to i32
  %21 = call i64 @strlen(ptr noundef nonnull dereferenceable(1) %1) #13
  %22 = trunc i64 %21 to i32
  %23 = icmp sgt i32 %22, %20
  br i1 %23, label %24, label %TrimExtension.exit

24:                                               ; preds = %18
  %sext.i = shl i64 %21, 32
  %25 = ashr exact i64 %sext.i, 32
  %26 = getelementptr inbounds i8, ptr %1, i64 %25
  %sext13.i = shl i64 %19, 32
  %27 = ashr exact i64 %sext13.i, 32
  %28 = sub nsw i64 0, %27
  %29 = getelementptr inbounds i8, ptr %26, i64 %28
  %30 = call i32 @strcmp(ptr noundef nonnull dereferenceable(1) %29, ptr noundef nonnull readonly dereferenceable(1) %16) #13
  %31 = icmp eq i32 %30, 0
  br i1 %31, label %32, label %TrimExtension.exit

32:                                               ; preds = %24
  %33 = sub i64 %21, %19
  %sext14.i = shl i64 %33, 32
  %34 = ashr exact i64 %sext14.i, 32
  %35 = getelementptr inbounds i8, ptr %1, i64 %34
  store i8 0, ptr %35, align 1
  br label %TrimExtension.exit

TrimExtension.exit:                               ; preds = %12, %18, %24, %32
  %36 = call i64 @strlen(ptr noundef nonnull readonly dereferenceable(1) %1) #13
  switch i64 %36, label %IsPartialXLogFileName.exit.thread [
    i64 24, label %IsXLogFileName.exit
    i64 32, label %39
  ]

IsXLogFileName.exit:                              ; preds = %TrimExtension.exit
  %37 = call i64 @strspn(ptr noundef nonnull readonly %1, ptr noundef nonnull @.str.37) #13
  %38 = icmp eq i64 %37, 24
  br i1 %38, label %48, label %IsBackupHistoryFileName.exit.thread, !llvm.loop !7

39:                                               ; preds = %TrimExtension.exit
  %40 = call i64 @strspn(ptr noundef nonnull readonly %1, ptr noundef nonnull @.str.37) #13
  %41 = icmp eq i64 %40, 24
  br i1 %41, label %IsPartialXLogFileName.exit, label %IsPartialXLogFileName.exit.thread.thread16

IsPartialXLogFileName.exit:                       ; preds = %39
  %bcmp = call i32 @bcmp(ptr noundef nonnull dereferenceable(9) %8, ptr noundef nonnull dereferenceable(9) @.str.38, i64 9)
  %42 = icmp eq i32 %bcmp, 0
  br i1 %42, label %48, label %.thread11

IsPartialXLogFileName.exit.thread:                ; preds = %TrimExtension.exit
  %.b8 = load i1, ptr @cleanBackupHistory, align 1
  %43 = icmp ugt i64 %36, 24
  %or.cond = and i1 %43, %.b8
  br i1 %or.cond, label %.thread13, label %IsBackupHistoryFileName.exit.thread, !llvm.loop !7

IsPartialXLogFileName.exit.thread.thread16:       ; preds = %39
  %.b817 = load i1, ptr @cleanBackupHistory, align 1
  br i1 %.b817, label %.thread13, label %IsBackupHistoryFileName.exit.thread, !llvm.loop !7

.thread11:                                        ; preds = %IsPartialXLogFileName.exit
  %.b812 = load i1, ptr @cleanBackupHistory, align 1
  br i1 %.b812, label %.thread13, label %IsBackupHistoryFileName.exit.thread, !llvm.loop !7

.thread13:                                        ; preds = %IsPartialXLogFileName.exit.thread, %IsPartialXLogFileName.exit.thread.thread16, %.thread11
  %44 = call i64 @strspn(ptr noundef nonnull readonly %1, ptr noundef nonnull @.str.37) #13
  %45 = icmp eq i64 %44, 24
  br i1 %45, label %IsBackupHistoryFileName.exit, label %IsBackupHistoryFileName.exit.thread

IsBackupHistoryFileName.exit:                     ; preds = %.thread13
  %gep = getelementptr i8, ptr %invariant.gep, i64 %36
  %46 = call i32 @strcmp(ptr noundef nonnull readonly dereferenceable(1) %gep, ptr noundef nonnull dereferenceable(8) @.str.40) #13
  %47 = icmp eq i32 %46, 0
  br i1 %47, label %48, label %IsBackupHistoryFileName.exit.thread, !llvm.loop !7

48:                                               ; preds = %IsBackupHistoryFileName.exit, %IsPartialXLogFileName.exit, %IsXLogFileName.exit
  %49 = call i32 @strcmp(ptr noundef nonnull dereferenceable(1) %9, ptr noundef nonnull dereferenceable(1) getelementptr inbounds nuw (i8, ptr @exclusiveCleanupFileName, i64 8)) #13
  %50 = icmp sgt i32 %49, -1
  br i1 %50, label %IsBackupHistoryFileName.exit.thread, label %51, !llvm.loop !7

51:                                               ; preds = %48
  %52 = load ptr, ptr @archiveLocation, align 8
  %53 = call i32 (ptr, i64, ptr, ...) @pg_snprintf(ptr noundef nonnull %2, i64 noundef 2048, ptr noundef nonnull @.str.42, ptr noundef %52, ptr noundef nonnull %14) #12
  %.b59 = load i1, ptr @dryrun, align 1
  br i1 %.b59, label %54, label %59

54:                                               ; preds = %51
  %55 = call i32 (ptr, ...) @pg_printf(ptr noundef nonnull @.str.43, ptr noundef nonnull %2) #12
  %56 = load i32, ptr @__pg_log_level, align 4
  %57 = icmp ult i32 %56, 2
  br i1 %57, label %58, label %IsBackupHistoryFileName.exit.thread, !prof !6, !llvm.loop !7

58:                                               ; preds = %54
  call void (i32, i32, ptr, ...) @pg_log_generic(i32 noundef 1, i32 noundef 0, ptr noundef nonnull @.str.44, ptr noundef nonnull %2) #12
  br label %IsBackupHistoryFileName.exit.thread, !llvm.loop !7

59:                                               ; preds = %51
  %60 = load i32, ptr @__pg_log_level, align 4
  %61 = icmp ult i32 %60, 2
  br i1 %61, label %62, label %63, !prof !6

62:                                               ; preds = %59
  call void (i32, i32, ptr, ...) @pg_log_generic(i32 noundef 1, i32 noundef 0, ptr noundef nonnull @.str.45, ptr noundef nonnull %2) #12
  br label %63

63:                                               ; preds = %62, %59
  %64 = call i32 @unlink(ptr noundef nonnull %2) #12
  %.not10 = icmp eq i32 %64, 0
  br i1 %.not10, label %IsBackupHistoryFileName.exit.thread, label %65

65:                                               ; preds = %63
  call void (i32, i32, ptr, ...) @pg_log_generic(i32 noundef 4, i32 noundef 0, ptr noundef nonnull @.str.46, ptr noundef nonnull %2) #12
  call void @exit(i32 noundef 1) #15
  unreachable

IsBackupHistoryFileName.exit.thread:              ; preds = %IsXLogFileName.exit, %.thread13, %IsPartialXLogFileName.exit.thread.thread16, %.thread11, %63, %54, %58, %48, %IsPartialXLogFileName.exit.thread, %IsBackupHistoryFileName.exit
  call void @llvm.lifetime.end.p0(i64 2048, ptr nonnull %2) #12
  store i32 0, ptr %6, align 4
  %66 = call ptr @readdir(ptr noundef nonnull %4) #12
  %.not = icmp eq ptr %66, null
  br i1 %.not, label %._crit_edge, label %12

._crit_edge:                                      ; preds = %IsBackupHistoryFileName.exit.thread, %.preheader
  %67 = load i32, ptr %6, align 4
  %.not6 = icmp eq i32 %67, 0
  br i1 %.not6, label %70, label %68

68:                                               ; preds = %._crit_edge
  %69 = load ptr, ptr @archiveLocation, align 8
  call void (i32, i32, ptr, ...) @pg_log_generic(i32 noundef 4, i32 noundef 0, ptr noundef nonnull @.str.47, ptr noundef %69) #12
  call void @exit(i32 noundef 1) #15
  unreachable

70:                                               ; preds = %._crit_edge
  %71 = call i32 @closedir(ptr noundef nonnull %4)
  %.not7 = icmp eq i32 %71, 0
  br i1 %.not7, label %74, label %72

72:                                               ; preds = %70
  %73 = load ptr, ptr @archiveLocation, align 8
  call void (i32, i32, ptr, ...) @pg_log_generic(i32 noundef 4, i32 noundef 0, ptr noundef nonnull @.str.48, ptr noundef %73) #12
  call void @exit(i32 noundef 1) #15
  unreachable

74:                                               ; preds = %70
  call void @llvm.lifetime.end.p0(i64 1024, ptr nonnull %1) #12
  ret void
}